; Function Attrs: nofree norecurse nosync nounwind memory(write, argmem: readwrite, inaccessiblemem: none) uwtable
define hidden noundef signext i8 @lxb_encoding_encode_euc_kr_single(ptr nocapture noundef readnone %0, ptr nocapture noundef %1, ptr noundef readnone %2, i32 noundef %3) local_unnamed_addr #6 {
  %5 = icmp ult i32 %3, 128
  br i1 %5, label %6, label %10

6:                                                ; preds = %4
  %7 = trunc i32 %3 to i8
  %8 = load ptr, ptr %1, align 8
  %9 = getelementptr inbounds i8, ptr %8, i64 1
  store ptr %9, ptr %1, align 8
  store i8 %7, ptr %8, align 1
  br label %lexbor_shs_hash_get_static.exit.thread

10:                                               ; preds = %4
  %11 = load ptr, ptr %1, align 8
  %12 = getelementptr inbounds i8, ptr %11, i64 2
  %13 = icmp ugt ptr %12, %2
  br i1 %13, label %lexbor_shs_hash_get_static.exit.thread, label %14

14:                                               ; preds = %10
  %15 = urem i32 %3, 28041
  %.zext = zext nneg i32 %15 to i64
  %16 = getelementptr %struct.lexbor_shs_hash_t, ptr @lxb_encoding_multi_hash_euc_kr, i64 %.zext
  %17 = getelementptr i8, ptr %16, i64 12
  br label %18

18:                                               ; preds = %21, %14
  %.0.i = phi ptr [ %17, %14 ], [ %25, %21 ]
  %19 = load i32, ptr %.0.i, align 4
  %20 = icmp eq i32 %19, %3
  br i1 %20, label %lexbor_shs_hash_get_static.exit, label %21

21:                                               ; preds = %18
  %22 = getelementptr inbounds i8, ptr %.0.i, i64 8
  %23 = load i32, ptr %22, align 4
  %24 = zext i32 %23 to i64
  %25 = getelementptr inbounds %struct.lexbor_shs_hash_t, ptr @lxb_encoding_multi_hash_euc_kr, i64 %24
  %.not.i = icmp eq i32 %23, 0
  br i1 %.not.i, label %lexbor_shs_hash_get_static.exit.thread, label %18

lexbor_shs_hash_get_static.exit:                  ; preds = %18
  %26 = getelementptr inbounds i8, ptr %.0.i, i64 4
  %27 = load i32, ptr %26, align 4
  %28 = udiv i32 %27, 190
  %29 = trunc i32 %28 to i8
  %30 = add i8 %29, -127
  %31 = getelementptr inbounds i8, ptr %11, i64 1
  store ptr %31, ptr %1, align 8
  store i8 %30, ptr %11, align 1
  %32 = urem i32 %27, 190
  %33 = trunc i32 %32 to i8
  %34 = add nuw i8 %33, 65
  %35 = load ptr, ptr %1, align 8
  %36 = getelementptr inbounds i8, ptr %35, i64 1
  store ptr %36, ptr %1, align 8
  store i8 %34, ptr %35, align 1
  br label %lexbor_shs_hash_get_static.exit.thread

lexbor_shs_hash_get_static.exit.thread:           ; preds = %21, %10, %lexbor_shs_hash_get_static.exit, %6
  %.0 = phi i8 [ 1, %6 ], [ 2, %lexbor_shs_hash_get_static.exit ], [ -2, %10 ], [ -1, %21 ]
  ret i8 %.0
}